target datalayout = "e-m:e-p270:32:32-p271:32:32-p272:64:64-i64:64-i128:128-f80:128-n8:16:32:64-S128"
target triple = "x86_64-pc-linux-gnu"

%struct.AVMD5 = type { i64, [64 x i8], [4 x i32] }

; Function Attrs: nounwind uwtable
define void @av_md5_update(ptr noundef %0, ptr noundef %1, i64 noundef %2) #0 {
  %4 = alloca ptr, align 8
  %5 = alloca ptr, align 8
  %6 = alloca i64, align 8
  %7 = alloca ptr, align 8
  %8 = alloca i32, align 4
  %9 = alloca i32, align 4
  %10 = alloca i32, align 4
  %11 = alloca i64, align 8
  store ptr %0, ptr %4, align 8, !tbaa !4
  store ptr %1, ptr %5, align 8, !tbaa !14
  store i64 %2, ptr %6, align 8, !tbaa !16
  call void @llvm.lifetime.start.p0(i64 8, ptr %7) #4
  call void @llvm.lifetime.start.p0(i64 4, ptr %8) #4
  %12 = load ptr, ptr %4, align 8, !tbaa !4
  %13 = getelementptr inbounds nuw %struct.AVMD5, ptr %12, i32 0, i32 0
  %14 = load i64, ptr %13, align 8, !tbaa !9
  %15 = and i64 %14, 63
  %16 = trunc i64 %15 to i32
  store i32 %16, ptr %8, align 4, !tbaa !12
  %17 = load i64, ptr %6, align 8, !tbaa !16
  %18 = load ptr, ptr %4, align 8, !tbaa !4
  %19 = getelementptr inbounds nuw %struct.AVMD5, ptr %18, i32 0, i32 0
  %20 = load i64, ptr %19, align 8, !tbaa !9
  %21 = add i64 %20, %17
  store i64 %21, ptr %19, align 8, !tbaa !9
  %22 = load i32, ptr %8, align 4, !tbaa !12
  %23 = icmp ne i32 %22, 0
  br i1 %23, label %24, label %71

24:                                               ; preds = %3
  call void @llvm.lifetime.start.p0(i64 4, ptr %9) #4
  %25 = load i64, ptr %6, align 8, !tbaa !16
  %26 = load i32, ptr %8, align 4, !tbaa !12
  %27 = sub nsw i32 64, %26
  %28 = sext i32 %27 to i64
  %29 = icmp ugt i64 %25, %28
  br i1 %29, label %30, label %34

30:                                               ; preds = %24
  %31 = load i32, ptr %8, align 4, !tbaa !12
  %32 = sub nsw i32 64, %31
  %33 = sext i32 %32 to i64
  br label %36

34:                                               ; preds = %24
  %35 = load i64, ptr %6, align 8, !tbaa !16
  br label %36

36:                                               ; preds = %34, %30
  %37 = phi i64 [ %33, %30 ], [ %35, %34 ]
  %38 = trunc i64 %37 to i32
  store i32 %38, ptr %9, align 4, !tbaa !12
  %39 = load ptr, ptr %4, align 8, !tbaa !4
  %40 = getelementptr inbounds nuw %struct.AVMD5, ptr %39, i32 0, i32 1
  %41 = getelementptr inbounds [64 x i8], ptr %40, i64 0, i64 0
  %42 = load i32, ptr %8, align 4, !tbaa !12
  %43 = sext i32 %42 to i64
  %44 = getelementptr inbounds i8, ptr %41, i64 %43
  %45 = load ptr, ptr %5, align 8, !tbaa !14
  %46 = load i32, ptr %9, align 4, !tbaa !12
  %47 = sext i32 %46 to i64
  call void @llvm.memcpy.p0.p0.i64(ptr align 1 %44, ptr align 1 %45, i64 %47, i1 false)
  %48 = load i32, ptr %9, align 4, !tbaa !12
  %49 = load ptr, ptr %5, align 8, !tbaa !14
  %50 = sext i32 %48 to i64
  %51 = getelementptr inbounds i8, ptr %49, i64 %50
  store ptr %51, ptr %5, align 8, !tbaa !14
  %52 = load i32, ptr %9, align 4, !tbaa !12
  %53 = sext i32 %52 to i64
  %54 = load i64, ptr %6, align 8, !tbaa !16
  %55 = sub i64 %54, %53
  store i64 %55, ptr %6, align 8, !tbaa !16
  %56 = load i32, ptr %8, align 4, !tbaa !12
  %57 = load i32, ptr %9, align 4, !tbaa !12
  %58 = add nsw i32 %56, %57
  %59 = icmp slt i32 %58, 64
  br i1 %59, label %60, label %61

60:                                               ; preds = %36
  store i32 1, ptr %10, align 4
  br label %68

61:                                               ; preds = %36
  %62 = load ptr, ptr %4, align 8, !tbaa !4
  %63 = getelementptr inbounds nuw %struct.AVMD5, ptr %62, i32 0, i32 2
  %64 = getelementptr inbounds [4 x i32], ptr %63, i64 0, i64 0
  %65 = load ptr, ptr %4, align 8, !tbaa !4
  %66 = getelementptr inbounds nuw %struct.AVMD5, ptr %65, i32 0, i32 1
  %67 = getelementptr inbounds [64 x i8], ptr %66, i64 0, i64 0
  call void @body(ptr noundef %64, ptr noundef %67, i64 noundef 1)
  store i32 0, ptr %10, align 4
  br label %68

68:                                               ; preds = %61, %60
  call void @llvm.lifetime.end.p0(i64 4, ptr %9) #4
  %69 = load i32, ptr %10, align 4
  switch i32 %69, label %120 [
    i32 0, label %70
  ]

70:                                               ; preds = %68
  br label %71

71:                                               ; preds = %70, %3
  %72 = load ptr, ptr %5, align 8, !tbaa !14
  %73 = load i64, ptr %6, align 8, !tbaa !16
  %74 = and i64 %73, -64
  %75 = getelementptr inbounds nuw i8, ptr %72, i64 %74
  store ptr %75, ptr %7, align 8, !tbaa !14
  %76 = load ptr, ptr %5, align 8, !tbaa !14
  %77 = ptrtoint ptr %76 to i64
  %78 = and i64 %77, 3
  %79 = icmp ne i64 %78, 0
  br i1 %79, label %80, label %99

80:                                               ; preds = %71
  br label %81

81:                                               ; preds = %85, %80
  %82 = load ptr, ptr %5, align 8, !tbaa !14
  %83 = load ptr, ptr %7, align 8, !tbaa !14
  %84 = icmp ult ptr %82, %83
  br i1 %84, label %85, label %98

85:                                               ; preds = %81
  %86 = load ptr, ptr %4, align 8, !tbaa !4
  %87 = getelementptr inbounds nuw %struct.AVMD5, ptr %86, i32 0, i32 1
  %88 = getelementptr inbounds [64 x i8], ptr %87, i64 0, i64 0
  %89 = load ptr, ptr %5, align 8, !tbaa !14
  call void @llvm.memcpy.p0.p0.i64(ptr align 8 %88, ptr align 1 %89, i64 64, i1 false)
  %90 = load ptr, ptr %4, align 8, !tbaa !4
  %91 = getelementptr inbounds nuw %struct.AVMD5, ptr %90, i32 0, i32 2
  %92 = getelementptr inbounds [4 x i32], ptr %91, i64 0, i64 0
  %93 = load ptr, ptr %4, align 8, !tbaa !4
  %94 = getelementptr inbounds nuw %struct.AVMD5, ptr %93, i32 0, i32 1
  %95 = getelementptr inbounds [64 x i8], ptr %94, i64 0, i64 0
  call void @body(ptr noundef %92, ptr noundef %95, i64 noundef 1)
  %96 = load ptr, ptr %5, align 8, !tbaa !14
  %97 = getelementptr inbounds i8, ptr %96, i64 64
  store ptr %97, ptr %5, align 8, !tbaa !14
  br label %81, !llvm.loop !17

98:                                               ; preds = %81
  br label %108

99:                                               ; preds = %71
  call void @llvm.lifetime.start.p0(i64 8, ptr %11) #4
  %100 = load i64, ptr %6, align 8, !tbaa !16
  %101 = udiv i64 %100, 64
  store i64 %101, ptr %11, align 8, !tbaa !16
  %102 = load ptr, ptr %4, align 8, !tbaa !4
  %103 = getelementptr inbounds nuw %struct.AVMD5, ptr %102, i32 0, i32 2
  %104 = getelementptr inbounds [4 x i32], ptr %103, i64 0, i64 0
  %105 = load ptr, ptr %5, align 8, !tbaa !14
  %106 = load i64, ptr %11, align 8, !tbaa !16
  call void @body(ptr noundef %104, ptr noundef %105, i64 noundef %106)
  %107 = load ptr, ptr %7, align 8, !tbaa !14
  store ptr %107, ptr %5, align 8, !tbaa !14
  call void @llvm.lifetime.end.p0(i64 8, ptr %11) #4
  br label %108

108:                                              ; preds = %99, %98
  %109 = load i64, ptr %6, align 8, !tbaa !16
  %110 = and i64 %109, 63
  store i64 %110, ptr %6, align 8, !tbaa !16
  %111 = load i64, ptr %6, align 8, !tbaa !16
  %112 = icmp ugt i64 %111, 0
  br i1 %112, label %113, label %119

113:                                              ; preds = %108
  %114 = load ptr, ptr %4, align 8, !tbaa !4
  %115 = getelementptr inbounds nuw %struct.AVMD5, ptr %114, i32 0, i32 1
  %116 = getelementptr inbounds [64 x i8], ptr %115, i64 0, i64 0
  %117 = load ptr, ptr %5, align 8, !tbaa !14
  %118 = load i64, ptr %6, align 8, !tbaa !16
  call void @llvm.memcpy.p0.p0.i64(ptr align 8 %116, ptr align 1 %117, i64 %118, i1 false)
  br label %119

119:                                              ; preds = %113, %108
  store i32 0, ptr %10, align 4
  br label %120

120:                                              ; preds = %119, %68
  call void @llvm.lifetime.end.p0(i64 4, ptr %8) #4
  call void @llvm.lifetime.end.p0(i64 8, ptr %7) #4
  %121 = load i32, ptr %10, align 4
  switch i32 %121, label %123 [
    i32 0, label %122
    i32 1, label %122
  ]

122:                                              ; preds = %120, %120
  ret void

123:                                              ; preds = %120
  unreachable
}