; Function Attrs: nofree norecurse nosync nounwind memory(argmem: readwrite) uwtable
define void @av_md5_update(ptr noundef captures(none) %0, ptr noundef %1, i64 noundef %2) local_unnamed_addr #3 {
  %4 = load i64, ptr %0, align 8, !tbaa !4
  %5 = trunc i64 %4 to i32
  %6 = and i32 %5, 63
  %7 = add i64 %4, %2
  store i64 %7, ptr %0, align 8, !tbaa !4
  %.not = icmp eq i32 %6, 0
  br i1 %.not, label %22, label %8

8:                                                ; preds = %3
  %9 = sub nuw nsw i32 64, %6
  %10 = zext nneg i32 %9 to i64
  %11 = tail call i64 @llvm.umin.i64(i64 %2, i64 %10)
  %12 = trunc nuw nsw i64 %11 to i32
  %13 = getelementptr inbounds nuw i8, ptr %0, i64 8
  %14 = and i64 %4, 63
  %15 = getelementptr inbounds nuw i8, ptr %13, i64 %14
  tail call void @llvm.memcpy.p0.p0.i64(ptr nonnull align 1 %15, ptr align 1 %1, i64 %11, i1 false)
  %16 = add nuw nsw i32 %6, %12
  %17 = icmp samesign ugt i32 %16, 63
  br i1 %17, label %18, label %.critedge

18:                                               ; preds = %8
  %19 = sub i64 %2, %11
  %20 = getelementptr inbounds nuw i8, ptr %1, i64 %11
  %21 = getelementptr inbounds nuw i8, ptr %0, i64 72
  tail call fastcc void @body(ptr noundef nonnull %21, ptr noundef nonnull %13, i64 noundef 1)
  br label %22

22:                                               ; preds = %18, %3
  %.041 = phi i64 [ %19, %18 ], [ %2, %3 ]
  %.0 = phi ptr [ %20, %18 ], [ %1, %3 ]
  %23 = and i64 %.041, -64
  %24 = getelementptr inbounds nuw i8, ptr %.0, i64 %23
  %25 = ptrtoint ptr %.0 to i64
  %26 = and i64 %25, 3
  %.not44 = icmp eq i64 %26, 0
  br i1 %.not44, label %32, label %.preheader

.preheader:                                       ; preds = %22
  %.not47 = icmp eq i64 %23, 0
  br i1 %.not47, label %.loopexit, label %.lr.ph

.lr.ph:                                           ; preds = %.preheader
  %27 = getelementptr inbounds nuw i8, ptr %0, i64 8
  %28 = getelementptr inbounds nuw i8, ptr %0, i64 72
  br label %29

29:                                               ; preds = %.lr.ph, %29
  %.146 = phi ptr [ %.0, %.lr.ph ], [ %30, %29 ]
  tail call void @llvm.memcpy.p0.p0.i64(ptr noundef nonnull align 8 dereferenceable(64) %27, ptr noundef nonnull align 1 dereferenceable(64) %.146, i64 64, i1 false)
  tail call fastcc void @body(ptr noundef nonnull %28, ptr noundef nonnull %27, i64 noundef 1)
  %30 = getelementptr inbounds nuw i8, ptr %.146, i64 64
  %31 = icmp ult ptr %30, %24
  br i1 %31, label %29, label %.loopexit, !llvm.loop !11

32:                                               ; preds = %22
  %33 = lshr i64 %.041, 6
  %34 = getelementptr inbounds nuw i8, ptr %0, i64 72
  tail call fastcc void @body(ptr noundef nonnull %34, ptr noundef %.0, i64 noundef %33)
  br label %.loopexit

.loopexit:                                        ; preds = %29, %.preheader, %32
  %.2 = phi ptr [ %24, %32 ], [ %.0, %.preheader ], [ %30, %29 ]
  %35 = and i64 %.041, 63
  %.not45 = icmp eq i64 %35, 0
  br i1 %.not45, label %.critedge, label %36

36:                                               ; preds = %.loopexit
  %37 = getelementptr inbounds nuw i8, ptr %0, i64 8
  tail call void @llvm.memcpy.p0.p0.i64(ptr nonnull align 8 %37, ptr align 1 %.2, i64 %35, i1 false)
  br label %.critedge

.critedge:                                        ; preds = %8, %.loopexit, %36
  ret void
}